target datalayout = "e-m:e-p270:32:32-p271:32:32-p272:64:64-i64:64-i128:128-f80:128-n8:16:32:64-S128"
target triple = "x86_64-pc-linux-gnu"

%"class.absl::crc32c_t" = type { i32 }
%"class.std::basic_string_view" = type { i64, ptr }

@_ZZN4absl12_GLOBAL__N_19CrcEngineEvE6engine = internal global ptr null, align 8
@_ZGVZN4absl12_GLOBAL__N_19CrcEngineEvE6engine = internal global i64 0, align 8

; Function Attrs: mustprogress uwtable
define internal noundef ptr @_ZN4absl12_GLOBAL__N_19CrcEngineEv() #0 personality ptr @__gxx_personality_v0 {
  %1 = alloca ptr, align 8
  %2 = alloca i32, align 4
  %3 = load atomic i8, ptr @_ZGVZN4absl12_GLOBAL__N_19CrcEngineEvE6engine acquire, align 8
  %4 = icmp eq i8 %3, 0
  br i1 %4, label %5, label %11, !prof !17

5:                                                ; preds = %0
  %6 = call i32 @__cxa_guard_acquire(ptr @_ZGVZN4absl12_GLOBAL__N_19CrcEngineEvE6engine) #5
  %7 = icmp ne i32 %6, 0
  br i1 %7, label %8, label %11

8:                                                ; preds = %5
  %9 = invoke noundef ptr @_ZN4absl12crc_internal3CRC6Crc32cEv()
          to label %10 unwind label %13

10:                                               ; preds = %8
  store ptr %9, ptr @_ZZN4absl12_GLOBAL__N_19CrcEngineEvE6engine, align 8, !tbaa !18
  call void @__cxa_guard_release(ptr @_ZGVZN4absl12_GLOBAL__N_19CrcEngineEvE6engine) #5
  br label %11

11:                                               ; preds = %10, %5, %0
  %12 = load ptr, ptr @_ZZN4absl12_GLOBAL__N_19CrcEngineEvE6engine, align 8, !tbaa !18
  ret ptr %12

13:                                               ; preds = %8
  %14 = landingpad { ptr, i32 }
          cleanup
  %15 = extractvalue { ptr, i32 } %14, 0
  store ptr %15, ptr %1, align 8
  %16 = extractvalue { ptr, i32 } %14, 1
  store i32 %16, ptr %2, align 4
  call void @__cxa_guard_abort(ptr @_ZGVZN4absl12_GLOBAL__N_19CrcEngineEvE6engine) #5
  br label %17

17:                                               ; preds = %13
  %18 = load ptr, ptr %1, align 8
  %19 = load i32, ptr %2, align 4
  %20 = insertvalue { ptr, i32 } poison, ptr %18, 0
  %21 = insertvalue { ptr, i32 } %20, i32 %19, 1
  resume { ptr, i32 } %21
}

; Function Attrs: mustprogress uwtable
define dso_local i32 @_ZN4absl12crc_internal20ExtendCrc32cInternalENS_8crc32c_tESt17basic_string_viewIcSt11char_traitsIcEE(i32 %0, i64 %1, ptr %2) #0 {
  %4 = alloca %"class.absl::crc32c_t", align 4
  %5 = alloca %"class.absl::crc32c_t", align 4
  %6 = alloca %"class.std::basic_string_view", align 8
  %7 = alloca i32, align 4
  %8 = getelementptr inbounds nuw %"class.absl::crc32c_t", ptr %5, i32 0, i32 0
  store i32 %0, ptr %8, align 4
  %9 = getelementptr inbounds nuw { i64, ptr }, ptr %6, i32 0, i32 0
  store i64 %1, ptr %9, align 8
  %10 = getelementptr inbounds nuw { i64, ptr }, ptr %6, i32 0, i32 1
  store ptr %2, ptr %10, align 8
  call void @llvm.lifetime.start.p0(i64 4, ptr %7) #5
  %11 = call noundef i32 @_ZNK4absl8crc32c_tcvjEv(ptr noundef nonnull align 4 dereferenceable(4) %5)
  %12 = xor i32 %11, -1
  store i32 %12, ptr %7, align 4, !tbaa !8
  %13 = call noundef ptr @_ZN4absl12_GLOBAL__N_19CrcEngineEv()
  %14 = call noundef ptr @_ZNKSt17basic_string_viewIcSt11char_traitsIcEE4dataEv(ptr noundef nonnull align 8 dereferenceable(16) %6) #5
  %15 = call noundef i64 @_ZNKSt17basic_string_viewIcSt11char_traitsIcEE4sizeEv(ptr noundef nonnull align 8 dereferenceable(16) %6) #5
  %16 = load ptr, ptr %13, align 8, !tbaa !10
  %17 = getelementptr inbounds ptr, ptr %16, i64 2
  %18 = load ptr, ptr %17, align 8
  call void %18(ptr noundef nonnull align 8 dereferenceable(8) %13, ptr noundef %7, ptr noundef %14, i64 noundef %15)
  %19 = load i32, ptr %7, align 4, !tbaa !8
  %20 = xor i32 %19, -1
  call void @_ZN4absl8crc32c_tC2Ej(ptr noundef nonnull align 4 dereferenceable(4) %4, i32 noundef %20)
  call void @llvm.lifetime.end.p0(i64 4, ptr %7) #5
  %21 = getelementptr inbounds nuw %"class.absl::crc32c_t", ptr %4, i32 0, i32 0
  %22 = load i32, ptr %21, align 4
  ret i32 %22
}

; Function Attrs: inlinehint mustprogress nounwind uwtable
define linkonce_odr dso_local noundef zeroext i1 @_ZN4absl12crc_internal18ExtendCrc32cInlineEPjPKcm(ptr noundef %0, ptr noundef %1, i64 noundef %2) #7 comdat {
  %4 = alloca ptr, align 8
  %5 = alloca ptr, align 8
  %6 = alloca i64, align 8
  store ptr %0, ptr %4, align 8, !tbaa !34
  store ptr %1, ptr %5, align 8, !tbaa !27
  store i64 %2, ptr %6, align 8, !tbaa !4
  ret i1 false
}

; Function Attrs: mustprogress nounwind uwtable
define linkonce_odr dso_local noundef ptr @_ZNKSt17basic_string_viewIcSt11char_traitsIcEE4dataEv(ptr noundef nonnull align 8 dereferenceable(16) %0) #2 comdat align 2 {
  %2 = alloca ptr, align 8
  store ptr %0, ptr %2, align 8, !tbaa !20
  %3 = load ptr, ptr %2, align 8
  %4 = getelementptr inbounds nuw %"class.std::basic_string_view", ptr %3, i32 0, i32 1
  %5 = load ptr, ptr %4, align 8, !tbaa !22
  ret ptr %5
}

; Function Attrs: mustprogress nounwind uwtable
define linkonce_odr dso_local noundef i32 @_ZNK4absl8crc32c_tcvjEv(ptr noundef nonnull align 4 dereferenceable(4) %0) #2 comdat align 2 {
  %2 = alloca ptr, align 8
  store ptr %0, ptr %2, align 8, !tbaa !12
  %3 = load ptr, ptr %2, align 8
  %4 = getelementptr inbounds nuw %"class.absl::crc32c_t", ptr %3, i32 0, i32 0
  %5 = load i32, ptr %4, align 4, !tbaa !15
  ret i32 %5
}

; Function Attrs: mustprogress nounwind uwtable
define linkonce_odr dso_local noundef i64 @_ZNKSt17basic_string_viewIcSt11char_traitsIcEE4sizeEv(ptr noundef nonnull align 8 dereferenceable(16) %0) #2 comdat align 2 {
  %2 = alloca ptr, align 8
  store ptr %0, ptr %2, align 8, !tbaa !20
  %3 = load ptr, ptr %2, align 8
  %4 = getelementptr inbounds nuw %"class.std::basic_string_view", ptr %3, i32 0, i32 0
  %5 = load i64, ptr %4, align 8, !tbaa !25
  ret i64 %5
}

; Function Attrs: inlinehint mustprogress uwtable
define linkonce_odr dso_local i32 @_ZN4absl12ExtendCrc32cENS_8crc32c_tESt17basic_string_viewIcSt11char_traitsIcEE(i32 %0, i64 %1, ptr %2) #3 comdat {
  %4 = alloca %"class.absl::crc32c_t", align 4
  %5 = alloca %"class.absl::crc32c_t", align 4
  %6 = alloca %"class.std::basic_string_view", align 8
  %7 = alloca i32, align 4
  %8 = alloca i32, align 4
  %9 = alloca %"class.absl::crc32c_t", align 4
  %10 = alloca %"class.std::basic_string_view", align 8
  %11 = getelementptr inbounds nuw %"class.absl::crc32c_t", ptr %5, i32 0, i32 0
  store i32 %0, ptr %11, align 4
  %12 = getelementptr inbounds nuw { i64, ptr }, ptr %6, i32 0, i32 0
  store i64 %1, ptr %12, align 8
  %13 = getelementptr inbounds nuw { i64, ptr }, ptr %6, i32 0, i32 1
  store ptr %2, ptr %13, align 8
  %14 = call noundef i64 @_ZNKSt17basic_string_viewIcSt11char_traitsIcEE4sizeEv(ptr noundef nonnull align 8 dereferenceable(16) %6) #5
  %15 = icmp ule i64 %14, 64
  br i1 %15, label %16, label %27

16:                                               ; preds = %3
  call void @llvm.lifetime.start.p0(i64 4, ptr %7) #5
  %17 = call noundef i32 @_ZNK4absl8crc32c_tcvjEv(ptr noundef nonnull align 4 dereferenceable(4) %5)
  store i32 %17, ptr %7, align 4, !tbaa !8
  %18 = call noundef ptr @_ZNKSt17basic_string_viewIcSt11char_traitsIcEE4dataEv(ptr noundef nonnull align 8 dereferenceable(16) %6) #5
  %19 = call noundef i64 @_ZNKSt17basic_string_viewIcSt11char_traitsIcEE4sizeEv(ptr noundef nonnull align 8 dereferenceable(16) %6) #5
  %20 = call noundef zeroext i1 @_ZN4absl12crc_internal18ExtendCrc32cInlineEPjPKcm(ptr noundef %7, ptr noundef %18, i64 noundef %19)
  br i1 %20, label %21, label %23

21:                                               ; preds = %16
  %22 = load i32, ptr %7, align 4, !tbaa !8
  call void @_ZN4absl8crc32c_tC2Ej(ptr noundef nonnull align 4 dereferenceable(4) %4, i32 noundef %22)
  store i32 1, ptr %8, align 4
  br label %24

23:                                               ; preds = %16
  store i32 0, ptr %8, align 4
  br label %24

24:                                               ; preds = %23, %21
  call void @llvm.lifetime.end.p0(i64 4, ptr %7) #5
  %25 = load i32, ptr %8, align 4
  switch i32 %25, label %39 [
    i32 0, label %26
    i32 1, label %36
  ]

26:                                               ; preds = %24
  br label %27

27:                                               ; preds = %26, %3
  call void @llvm.memcpy.p0.p0.i64(ptr align 4 %9, ptr align 4 %5, i64 4, i1 false), !tbaa.struct !28
  call void @llvm.memcpy.p0.p0.i64(ptr align 8 %10, ptr align 8 %6, i64 16, i1 false), !tbaa.struct !26
  %28 = getelementptr inbounds nuw %"class.absl::crc32c_t", ptr %9, i32 0, i32 0
  %29 = load i32, ptr %28, align 4
  %30 = getelementptr inbounds nuw { i64, ptr }, ptr %10, i32 0, i32 0
  %31 = load i64, ptr %30, align 8
  %32 = getelementptr inbounds nuw { i64, ptr }, ptr %10, i32 0, i32 1
  %33 = load ptr, ptr %32, align 8
  %34 = call i32 @_ZN4absl12crc_internal20ExtendCrc32cInternalENS_8crc32c_tESt17basic_string_viewIcSt11char_traitsIcEE(i32 %29, i64 %31, ptr %33)
  %35 = getelementptr inbounds nuw %"class.absl::crc32c_t", ptr %4, i32 0, i32 0
  store i32 %34, ptr %35, align 4
  br label %36

36:                                               ; preds = %27, %24
  %37 = getelementptr inbounds nuw %"class.absl::crc32c_t", ptr %4, i32 0, i32 0
  %38 = load i32, ptr %37, align 4
  ret i32 %38

39:                                               ; preds = %24
  unreachable
}

; Function Attrs: mustprogress nounwind uwtable
define linkonce_odr dso_local void @_ZN4absl8crc32c_tC2Ej(ptr noundef nonnull align 4 dereferenceable(4) %0, i32 noundef %1) unnamed_addr #2 comdat align 2 {
  %3 = alloca ptr, align 8
  %4 = alloca i32, align 4
  store ptr %0, ptr %3, align 8, !tbaa !12
  store i32 %1, ptr %4, align 4, !tbaa !8
  %5 = load ptr, ptr %3, align 8
  %6 = getelementptr inbounds nuw %"class.absl::crc32c_t", ptr %5, i32 0, i32 0
  %7 = load i32, ptr %4, align 4, !tbaa !8
  store i32 %7, ptr %6, align 4, !tbaa !15
  ret void
}

; Function Attrs: mustprogress uwtable
define dso_local i32 @_ZN4absl13ComputeCrc32cESt17basic_string_viewIcSt11char_traitsIcEE(i64 %0, ptr %1) #0 {
  %3 = alloca %"class.absl::crc32c_t", align 4
  %4 = alloca %"class.std::basic_string_view", align 8
  %5 = alloca %"class.absl::crc32c_t", align 4
  %6 = alloca %"class.std::basic_string_view", align 8
  %7 = getelementptr inbounds nuw { i64, ptr }, ptr %4, i32 0, i32 0
  store i64 %0, ptr %7, align 8
  %8 = getelementptr inbounds nuw { i64, ptr }, ptr %4, i32 0, i32 1
  store ptr %1, ptr %8, align 8
  call void @_ZN4absl8crc32c_tC2Ej(ptr noundef nonnull align 4 dereferenceable(4) %5, i32 noundef 0)
  call void @llvm.memcpy.p0.p0.i64(ptr align 8 %6, ptr align 8 %4, i64 16, i1 false), !tbaa.struct !26
  %9 = getelementptr inbounds nuw %"class.absl::crc32c_t", ptr %5, i32 0, i32 0
  %10 = load i32, ptr %9, align 4
  %11 = getelementptr inbounds nuw { i64, ptr }, ptr %6, i32 0, i32 0
  %12 = load i64, ptr %11, align 8
  %13 = getelementptr inbounds nuw { i64, ptr }, ptr %6, i32 0, i32 1
  %14 = load ptr, ptr %13, align 8
  %15 = call i32 @_ZN4absl12ExtendCrc32cENS_8crc32c_tESt17basic_string_viewIcSt11char_traitsIcEE(i32 %10, i64 %12, ptr %14)
  %16 = getelementptr inbounds nuw %"class.absl::crc32c_t", ptr %3, i32 0, i32 0
  store i32 %15, ptr %16, align 4
  %17 = getelementptr inbounds nuw %"class.absl::crc32c_t", ptr %3, i32 0, i32 0
  %18 = load i32, ptr %17, align 4
  ret i32 %18
}