; Function Attrs: mustprogress uwtable
define dso_local i32 @_ZN4absl13ComputeCrc32cESt17basic_string_viewIcSt11char_traitsIcEE(i64 %0, ptr %1) local_unnamed_addr #0 personality ptr @__gxx_personality_v0 {
  %3 = alloca i32, align 4
  call void @llvm.lifetime.start.p0(i64 4, ptr nonnull %3) #4
  store i32 -1, ptr %3, align 4, !tbaa !4
  %4 = load atomic i8, ptr @_ZGVZN4absl12_GLOBAL__N_19CrcEngineEvE6engine acquire, align 8
  %5 = icmp eq i8 %4, 0
  br i1 %5, label %6, label %_ZN4absl12ExtendCrc32cENS_8crc32c_tESt17basic_string_viewIcSt11char_traitsIcEE.exit, !prof !8

6:                                                ; preds = %2
  %7 = tail call i32 @__cxa_guard_acquire(ptr nonnull @_ZGVZN4absl12_GLOBAL__N_19CrcEngineEvE6engine) #4
  %.not.i.i.i = icmp eq i32 %7, 0
  br i1 %.not.i.i.i, label %_ZN4absl12ExtendCrc32cENS_8crc32c_tESt17basic_string_viewIcSt11char_traitsIcEE.exit, label %8

8:                                                ; preds = %6
  %9 = invoke noundef ptr @_ZN4absl12crc_internal3CRC6Crc32cEv()
          to label %10 unwind label %11

10:                                               ; preds = %8
  store ptr %9, ptr @_ZZN4absl12_GLOBAL__N_19CrcEngineEvE6engine, align 8, !tbaa !9
  tail call void @__cxa_guard_release(ptr nonnull @_ZGVZN4absl12_GLOBAL__N_19CrcEngineEvE6engine) #4
  br label %_ZN4absl12ExtendCrc32cENS_8crc32c_tESt17basic_string_viewIcSt11char_traitsIcEE.exit

11:                                               ; preds = %8
  %12 = landingpad { ptr, i32 }
          cleanup
  tail call void @__cxa_guard_abort(ptr nonnull @_ZGVZN4absl12_GLOBAL__N_19CrcEngineEvE6engine) #4
  resume { ptr, i32 } %12

_ZN4absl12ExtendCrc32cENS_8crc32c_tESt17basic_string_viewIcSt11char_traitsIcEE.exit: ; preds = %2, %6, %10
  %13 = load ptr, ptr @_ZZN4absl12_GLOBAL__N_19CrcEngineEvE6engine, align 8, !tbaa !9
  %14 = load ptr, ptr %13, align 8, !tbaa !12
  %15 = getelementptr inbounds nuw i8, ptr %14, i64 16
  %16 = load ptr, ptr %15, align 8
  call void %16(ptr noundef nonnull align 8 dereferenceable(8) %13, ptr noundef nonnull %3, ptr noundef %1, i64 noundef %0)
  %17 = load i32, ptr %3, align 4, !tbaa !4
  %18 = xor i32 %17, -1
  call void @llvm.lifetime.end.p0(i64 4, ptr nonnull %3) #4
  ret i32 %18
}